; Function Attrs: mustprogress nofree norecurse nosync nounwind willreturn memory(argmem: readwrite) uwtable
define void @SSL_set_allow_early_data_cb(ptr noundef captures(address_is_null) %0, ptr noundef %1, ptr noundef %2) local_unnamed_addr #7 {
  %4 = icmp eq ptr %0, null
  br i1 %4, label %.thread, label %5

5:                                                ; preds = %3
  %6 = load i32, ptr %0, align 8, !tbaa !19
  %7 = icmp eq i32 %6, 0
  br i1 %7, label %8, label %.thread

8:                                                ; preds = %5
  %9 = getelementptr inbounds nuw i8, ptr %0, i64 5480
  store ptr %1, ptr %9, align 8, !tbaa !211
  %10 = getelementptr inbounds nuw i8, ptr %0, i64 5488
  store ptr %2, ptr %10, align 8, !tbaa !213
  br label %.thread

.thread:                                          ; preds = %3, %5, %8
  ret void
}